target datalayout = "e-m:e-p270:32:32-p271:32:32-p272:64:64-i64:64-i128:128-f80:128-n8:16:32:64-S128"
target triple = "x86_64-pc-linux-gnu"

%struct.anon = type { i64, double, double, double, double, double, double, double }

@.str.10 = private unnamed_addr constant [19 x i8] c"N_VGetArrayPointer\00", align 1
@stderr = external global ptr, align 8
@.str.52 = private unnamed_addr constant [55 x i8] c"\0ASUNDIALS_ERROR: %s() failed - returned NULL pointer\0A\0A\00", align 1
@.str.53 = private unnamed_addr constant [46 x i8] c"\0ASUNDIALS_ERROR: %s() failed with flag = %d\0A\0A\00", align 1
@.str.54 = private unnamed_addr constant [53 x i8] c"\0AMEMORY_ERROR: %s() failed - returned NULL pointer\0A\0A\00", align 1

; Function Attrs: nounwind uwtable
define internal i32 @check_flag(ptr noundef %0, ptr noundef %1, i32 noundef %2) #0 {
  %4 = alloca i32, align 4
  %5 = alloca ptr, align 8
  %6 = alloca ptr, align 8
  %7 = alloca i32, align 4
  %8 = alloca ptr, align 8
  %9 = alloca i32, align 4
  store ptr %0, ptr %5, align 8, !tbaa !10
  store ptr %1, ptr %6, align 8, !tbaa !33
  store i32 %2, ptr %7, align 4, !tbaa !8
  call void @llvm.lifetime.start.p0(i64 8, ptr %8) #6
  %10 = load i32, ptr %7, align 4, !tbaa !8
  %11 = icmp eq i32 %10, 0
  br i1 %11, label %12, label %19

12:                                               ; preds = %3
  %13 = load ptr, ptr %5, align 8, !tbaa !10
  %14 = icmp eq ptr %13, null
  br i1 %14, label %15, label %19

15:                                               ; preds = %12
  %16 = load ptr, ptr @stderr, align 8, !tbaa !31
  %17 = load ptr, ptr %6, align 8, !tbaa !33
  %18 = call i32 (ptr, ptr, ...) @fprintf(ptr noundef %16, ptr noundef @.str.52, ptr noundef %17) #6
  store i32 1, ptr %4, align 4
  store i32 1, ptr %9, align 4
  br label %47

19:                                               ; preds = %12, %3
  %20 = load i32, ptr %7, align 4, !tbaa !8
  %21 = icmp eq i32 %20, 1
  br i1 %21, label %22, label %34

22:                                               ; preds = %19
  %23 = load ptr, ptr %5, align 8, !tbaa !10
  store ptr %23, ptr %8, align 8, !tbaa !35
  %24 = load ptr, ptr %8, align 8, !tbaa !35
  %25 = load i32, ptr %24, align 4, !tbaa !8
  %26 = icmp slt i32 %25, 0
  br i1 %26, label %27, label %33

27:                                               ; preds = %22
  %28 = load ptr, ptr @stderr, align 8, !tbaa !31
  %29 = load ptr, ptr %6, align 8, !tbaa !33
  %30 = load ptr, ptr %8, align 8, !tbaa !35
  %31 = load i32, ptr %30, align 4, !tbaa !8
  %32 = call i32 (ptr, ptr, ...) @fprintf(ptr noundef %28, ptr noundef @.str.53, ptr noundef %29, i32 noundef %31) #6
  store i32 1, ptr %4, align 4
  store i32 1, ptr %9, align 4
  br label %47

33:                                               ; preds = %22
  br label %45

34:                                               ; preds = %19
  %35 = load i32, ptr %7, align 4, !tbaa !8
  %36 = icmp eq i32 %35, 2
  br i1 %36, label %37, label %44

37:                                               ; preds = %34
  %38 = load ptr, ptr %5, align 8, !tbaa !10
  %39 = icmp eq ptr %38, null
  br i1 %39, label %40, label %44

40:                                               ; preds = %37
  %41 = load ptr, ptr @stderr, align 8, !tbaa !31
  %42 = load ptr, ptr %6, align 8, !tbaa !33
  %43 = call i32 (ptr, ptr, ...) @fprintf(ptr noundef %41, ptr noundef @.str.54, ptr noundef %42) #6
  store i32 1, ptr %4, align 4
  store i32 1, ptr %9, align 4
  br label %47

44:                                               ; preds = %37, %34
  br label %45

45:                                               ; preds = %44, %33
  br label %46

46:                                               ; preds = %45
  store i32 0, ptr %4, align 4
  store i32 1, ptr %9, align 4
  br label %47

47:                                               ; preds = %46, %40, %27, %15
  call void @llvm.lifetime.end.p0(i64 8, ptr %8) #6
  %48 = load i32, ptr %4, align 4
  ret i32 %48
}

; Function Attrs: nounwind uwtable
define internal i32 @fe(double noundef %0, ptr noundef %1, ptr noundef %2, ptr noundef %3) #0 {
  %5 = alloca i32, align 4
  %6 = alloca double, align 8
  %7 = alloca ptr, align 8
  %8 = alloca ptr, align 8
  %9 = alloca ptr, align 8
  %10 = alloca ptr, align 8
  %11 = alloca i64, align 8
  %12 = alloca double, align 8
  %13 = alloca double, align 8
  %14 = alloca double, align 8
  %15 = alloca double, align 8
  %16 = alloca ptr, align 8
  %17 = alloca ptr, align 8
  %18 = alloca ptr, align 8
  %19 = alloca ptr, align 8
  %20 = alloca ptr, align 8
  %21 = alloca ptr, align 8
  %22 = alloca double, align 8
  %23 = alloca double, align 8
  %24 = alloca double, align 8
  %25 = alloca i64, align 8
  %26 = alloca i32, align 4
  store double %0, ptr %6, align 8, !tbaa !4
  store ptr %1, ptr %7, align 8, !tbaa !14
  store ptr %2, ptr %8, align 8, !tbaa !14
  store ptr %3, ptr %9, align 8, !tbaa !10
  call void @llvm.lifetime.start.p0(i64 8, ptr %10) #6
  %27 = load ptr, ptr %9, align 8, !tbaa !10
  store ptr %27, ptr %10, align 8, !tbaa !10
  call void @llvm.lifetime.start.p0(i64 8, ptr %11) #6
  %28 = load ptr, ptr %10, align 8, !tbaa !10
  %29 = getelementptr inbounds nuw %struct.anon, ptr %28, i32 0, i32 0
  %30 = load i64, ptr %29, align 8, !tbaa !18
  store i64 %30, ptr %11, align 8, !tbaa !12
  call void @llvm.lifetime.start.p0(i64 8, ptr %12) #6
  %31 = load ptr, ptr %10, align 8, !tbaa !10
  %32 = getelementptr inbounds nuw %struct.anon, ptr %31, i32 0, i32 4
  %33 = load double, ptr %32, align 8, !tbaa !22
  store double %33, ptr %12, align 8, !tbaa !4
  call void @llvm.lifetime.start.p0(i64 8, ptr %13) #6
  %34 = load ptr, ptr %10, align 8, !tbaa !10
  %35 = getelementptr inbounds nuw %struct.anon, ptr %34, i32 0, i32 5
  %36 = load double, ptr %35, align 8, !tbaa !23
  store double %36, ptr %13, align 8, !tbaa !4
  call void @llvm.lifetime.start.p0(i64 8, ptr %14) #6
  %37 = load ptr, ptr %10, align 8, !tbaa !10
  %38 = getelementptr inbounds nuw %struct.anon, ptr %37, i32 0, i32 6
  %39 = load double, ptr %38, align 8, !tbaa !24
  store double %39, ptr %14, align 8, !tbaa !4
  call void @llvm.lifetime.start.p0(i64 8, ptr %15) #6
  %40 = load ptr, ptr %10, align 8, !tbaa !10
  %41 = getelementptr inbounds nuw %struct.anon, ptr %40, i32 0, i32 1
  %42 = load double, ptr %41, align 8, !tbaa !26
  store double %42, ptr %15, align 8, !tbaa !4
  call void @llvm.lifetime.start.p0(i64 8, ptr %16) #6
  store ptr null, ptr %16, align 8, !tbaa !29
  call void @llvm.lifetime.start.p0(i64 8, ptr %17) #6
  store ptr null, ptr %17, align 8, !tbaa !29
  call void @llvm.lifetime.start.p0(i64 8, ptr %18) #6
  store ptr null, ptr %18, align 8, !tbaa !29
  call void @llvm.lifetime.start.p0(i64 8, ptr %19) #6
  store ptr null, ptr %19, align 8, !tbaa !29
  call void @llvm.lifetime.start.p0(i64 8, ptr %20) #6
  store ptr null, ptr %20, align 8, !tbaa !29
  call void @llvm.lifetime.start.p0(i64 8, ptr %21) #6
  store ptr null, ptr %21, align 8, !tbaa !29
  call void @llvm.lifetime.start.p0(i64 8, ptr %22) #6
  call void @llvm.lifetime.start.p0(i64 8, ptr %23) #6
  call void @llvm.lifetime.start.p0(i64 8, ptr %24) #6
  call void @llvm.lifetime.start.p0(i64 8, ptr %25) #6
  %43 = load ptr, ptr %7, align 8, !tbaa !14
  %44 = call ptr @N_VGetSubvector_ManyVector(ptr noundef %43, i64 noundef 0)
  %45 = call ptr @N_VGetArrayPointer(ptr noundef %44)
  store ptr %45, ptr %16, align 8, !tbaa !29
  %46 = load ptr, ptr %16, align 8, !tbaa !29
  %47 = call i32 @check_flag(ptr noundef %46, ptr noundef @.str.10, i32 noundef 0)
  %48 = icmp ne i32 %47, 0
  br i1 %48, label %49, label %50

49:                                               ; preds = %4
  store i32 1, ptr %5, align 4
  store i32 1, ptr %26, align 4
  br label %198

50:                                               ; preds = %4
  %51 = load ptr, ptr %7, align 8, !tbaa !14
  %52 = call ptr @N_VGetSubvector_ManyVector(ptr noundef %51, i64 noundef 1)
  %53 = call ptr @N_VGetArrayPointer(ptr noundef %52)
  store ptr %53, ptr %17, align 8, !tbaa !29
  %54 = load ptr, ptr %17, align 8, !tbaa !29
  %55 = call i32 @check_flag(ptr noundef %54, ptr noundef @.str.10, i32 noundef 0)
  %56 = icmp ne i32 %55, 0
  br i1 %56, label %57, label %58

57:                                               ; preds = %50
  store i32 1, ptr %5, align 4
  store i32 1, ptr %26, align 4
  br label %198

58:                                               ; preds = %50
  %59 = load ptr, ptr %7, align 8, !tbaa !14
  %60 = call ptr @N_VGetSubvector_ManyVector(ptr noundef %59, i64 noundef 2)
  %61 = call ptr @N_VGetArrayPointer(ptr noundef %60)
  store ptr %61, ptr %18, align 8, !tbaa !29
  %62 = load ptr, ptr %18, align 8, !tbaa !29
  %63 = call i32 @check_flag(ptr noundef %62, ptr noundef @.str.10, i32 noundef 0)
  %64 = icmp ne i32 %63, 0
  br i1 %64, label %65, label %66

65:                                               ; preds = %58
  store i32 1, ptr %5, align 4
  store i32 1, ptr %26, align 4
  br label %198

66:                                               ; preds = %58
  %67 = load ptr, ptr %8, align 8, !tbaa !14
  %68 = call ptr @N_VGetSubvector_ManyVector(ptr noundef %67, i64 noundef 0)
  %69 = call ptr @N_VGetArrayPointer(ptr noundef %68)
  store ptr %69, ptr %19, align 8, !tbaa !29
  %70 = load ptr, ptr %19, align 8, !tbaa !29
  %71 = call i32 @check_flag(ptr noundef %70, ptr noundef @.str.10, i32 noundef 0)
  %72 = icmp ne i32 %71, 0
  br i1 %72, label %73, label %74

73:                                               ; preds = %66
  store i32 1, ptr %5, align 4
  store i32 1, ptr %26, align 4
  br label %198

74:                                               ; preds = %66
  %75 = load ptr, ptr %8, align 8, !tbaa !14
  %76 = call ptr @N_VGetSubvector_ManyVector(ptr noundef %75, i64 noundef 1)
  %77 = call ptr @N_VGetArrayPointer(ptr noundef %76)
  store ptr %77, ptr %20, align 8, !tbaa !29
  %78 = load ptr, ptr %20, align 8, !tbaa !29
  %79 = call i32 @check_flag(ptr noundef %78, ptr noundef @.str.10, i32 noundef 0)
  %80 = icmp ne i32 %79, 0
  br i1 %80, label %81, label %82

81:                                               ; preds = %74
  store i32 1, ptr %5, align 4
  store i32 1, ptr %26, align 4
  br label %198

82:                                               ; preds = %74
  %83 = load ptr, ptr %8, align 8, !tbaa !14
  %84 = call ptr @N_VGetSubvector_ManyVector(ptr noundef %83, i64 noundef 2)
  %85 = call ptr @N_VGetArrayPointer(ptr noundef %84)
  store ptr %85, ptr %21, align 8, !tbaa !29
  %86 = load ptr, ptr %21, align 8, !tbaa !29
  %87 = call i32 @check_flag(ptr noundef %86, ptr noundef @.str.10, i32 noundef 0)
  %88 = icmp ne i32 %87, 0
  br i1 %88, label %89, label %90

89:                                               ; preds = %82
  store i32 1, ptr %5, align 4
  store i32 1, ptr %26, align 4
  br label %198

90:                                               ; preds = %82
  %91 = load ptr, ptr %8, align 8, !tbaa !14
  call void @N_VConst(double noundef 0.000000e+00, ptr noundef %91)
  %92 = load double, ptr %12, align 8, !tbaa !4
  %93 = load double, ptr %15, align 8, !tbaa !4
  %94 = fdiv double %92, %93
  %95 = load double, ptr %15, align 8, !tbaa !4
  %96 = fdiv double %94, %95
  store double %96, ptr %22, align 8, !tbaa !4
  %97 = load double, ptr %13, align 8, !tbaa !4
  %98 = load double, ptr %15, align 8, !tbaa !4
  %99 = fdiv double %97, %98
  %100 = load double, ptr %15, align 8, !tbaa !4
  %101 = fdiv double %99, %100
  store double %101, ptr %23, align 8, !tbaa !4
  %102 = load double, ptr %14, align 8, !tbaa !4
  %103 = load double, ptr %15, align 8, !tbaa !4
  %104 = fdiv double %102, %103
  %105 = load double, ptr %15, align 8, !tbaa !4
  %106 = fdiv double %104, %105
  store double %106, ptr %24, align 8, !tbaa !4
  store i64 1, ptr %25, align 8, !tbaa !12
  br label %107

107:                                              ; preds = %176, %90
  %108 = load i64, ptr %25, align 8, !tbaa !12
  %109 = load i64, ptr %11, align 8, !tbaa !12
  %110 = sub nsw i64 %109, 1
  %111 = icmp slt i64 %108, %110
  br i1 %111, label %112, label %179

112:                                              ; preds = %107
  %113 = load ptr, ptr %16, align 8, !tbaa !29
  %114 = load i64, ptr %25, align 8, !tbaa !12
  %115 = sub nsw i64 %114, 1
  %116 = getelementptr inbounds double, ptr %113, i64 %115
  %117 = load double, ptr %116, align 8, !tbaa !4
  %118 = load ptr, ptr %16, align 8, !tbaa !29
  %119 = load i64, ptr %25, align 8, !tbaa !12
  %120 = getelementptr inbounds double, ptr %118, i64 %119
  %121 = load double, ptr %120, align 8, !tbaa !4
  %122 = call double @llvm.fmuladd.f64(double -2.000000e+00, double %121, double %117)
  %123 = load ptr, ptr %16, align 8, !tbaa !29
  %124 = load i64, ptr %25, align 8, !tbaa !12
  %125 = add nsw i64 %124, 1
  %126 = getelementptr inbounds double, ptr %123, i64 %125
  %127 = load double, ptr %126, align 8, !tbaa !4
  %128 = fadd double %122, %127
  %129 = load double, ptr %22, align 8, !tbaa !4
  %130 = fmul double %128, %129
  %131 = load ptr, ptr %19, align 8, !tbaa !29
  %132 = load i64, ptr %25, align 8, !tbaa !12
  %133 = getelementptr inbounds double, ptr %131, i64 %132
  store double %130, ptr %133, align 8, !tbaa !4
  %134 = load ptr, ptr %17, align 8, !tbaa !29
  %135 = load i64, ptr %25, align 8, !tbaa !12
  %136 = sub nsw i64 %135, 1
  %137 = getelementptr inbounds double, ptr %134, i64 %136
  %138 = load double, ptr %137, align 8, !tbaa !4
  %139 = load ptr, ptr %17, align 8, !tbaa !29
  %140 = load i64, ptr %25, align 8, !tbaa !12
  %141 = getelementptr inbounds double, ptr %139, i64 %140
  %142 = load double, ptr %141, align 8, !tbaa !4
  %143 = call double @llvm.fmuladd.f64(double -2.000000e+00, double %142, double %138)
  %144 = load ptr, ptr %17, align 8, !tbaa !29
  %145 = load i64, ptr %25, align 8, !tbaa !12
  %146 = add nsw i64 %145, 1
  %147 = getelementptr inbounds double, ptr %144, i64 %146
  %148 = load double, ptr %147, align 8, !tbaa !4
  %149 = fadd double %143, %148
  %150 = load double, ptr %23, align 8, !tbaa !4
  %151 = fmul double %149, %150
  %152 = load ptr, ptr %20, align 8, !tbaa !29
  %153 = load i64, ptr %25, align 8, !tbaa !12
  %154 = getelementptr inbounds double, ptr %152, i64 %153
  store double %151, ptr %154, align 8, !tbaa !4
  %155 = load ptr, ptr %18, align 8, !tbaa !29
  %156 = load i64, ptr %25, align 8, !tbaa !12
  %157 = sub nsw i64 %156, 1
  %158 = getelementptr inbounds double, ptr %155, i64 %157
  %159 = load double, ptr %158, align 8, !tbaa !4
  %160 = load ptr, ptr %18, align 8, !tbaa !29
  %161 = load i64, ptr %25, align 8, !tbaa !12
  %162 = getelementptr inbounds double, ptr %160, i64 %161
  %163 = load double, ptr %162, align 8, !tbaa !4
  %164 = call double @llvm.fmuladd.f64(double -2.000000e+00, double %163, double %159)
  %165 = load ptr, ptr %18, align 8, !tbaa !29
  %166 = load i64, ptr %25, align 8, !tbaa !12
  %167 = add nsw i64 %166, 1
  %168 = getelementptr inbounds double, ptr %165, i64 %167
  %169 = load double, ptr %168, align 8, !tbaa !4
  %170 = fadd double %164, %169
  %171 = load double, ptr %24, align 8, !tbaa !4
  %172 = fmul double %170, %171
  %173 = load ptr, ptr %21, align 8, !tbaa !29
  %174 = load i64, ptr %25, align 8, !tbaa !12
  %175 = getelementptr inbounds double, ptr %173, i64 %174
  store double %172, ptr %175, align 8, !tbaa !4
  br label %176

176:                                              ; preds = %112
  %177 = load i64, ptr %25, align 8, !tbaa !12
  %178 = add nsw i64 %177, 1
  store i64 %178, ptr %25, align 8, !tbaa !12
  br label %107

179:                                              ; preds = %107
  %180 = load ptr, ptr %21, align 8, !tbaa !29
  %181 = getelementptr inbounds double, ptr %180, i64 0
  store double 0.000000e+00, ptr %181, align 8, !tbaa !4
  %182 = load ptr, ptr %20, align 8, !tbaa !29
  %183 = getelementptr inbounds double, ptr %182, i64 0
  store double 0.000000e+00, ptr %183, align 8, !tbaa !4
  %184 = load ptr, ptr %19, align 8, !tbaa !29
  %185 = getelementptr inbounds double, ptr %184, i64 0
  store double 0.000000e+00, ptr %185, align 8, !tbaa !4
  %186 = load ptr, ptr %21, align 8, !tbaa !29
  %187 = load i64, ptr %11, align 8, !tbaa !12
  %188 = sub nsw i64 %187, 1
  %189 = getelementptr inbounds double, ptr %186, i64 %188
  store double 0.000000e+00, ptr %189, align 8, !tbaa !4
  %190 = load ptr, ptr %20, align 8, !tbaa !29
  %191 = load i64, ptr %11, align 8, !tbaa !12
  %192 = sub nsw i64 %191, 1
  %193 = getelementptr inbounds double, ptr %190, i64 %192
  store double 0.000000e+00, ptr %193, align 8, !tbaa !4
  %194 = load ptr, ptr %19, align 8, !tbaa !29
  %195 = load i64, ptr %11, align 8, !tbaa !12
  %196 = sub nsw i64 %195, 1
  %197 = getelementptr inbounds double, ptr %194, i64 %196
  store double 0.000000e+00, ptr %197, align 8, !tbaa !4
  store i32 0, ptr %5, align 4
  store i32 1, ptr %26, align 4
  br label %198

198:                                              ; preds = %179, %89, %81, %73, %65, %57, %49
  call void @llvm.lifetime.end.p0(i64 8, ptr %25) #6
  call void @llvm.lifetime.end.p0(i64 8, ptr %24) #6
  call void @llvm.lifetime.end.p0(i64 8, ptr %23) #6
  call void @llvm.lifetime.end.p0(i64 8, ptr %22) #6
  call void @llvm.lifetime.end.p0(i64 8, ptr %21) #6
  call void @llvm.lifetime.end.p0(i64 8, ptr %20) #6
  call void @llvm.lifetime.end.p0(i64 8, ptr %19) #6
  call void @llvm.lifetime.end.p0(i64 8, ptr %18) #6
  call void @llvm.lifetime.end.p0(i64 8, ptr %17) #6
  call void @llvm.lifetime.end.p0(i64 8, ptr %16) #6
  call void @llvm.lifetime.end.p0(i64 8, ptr %15) #6
  call void @llvm.lifetime.end.p0(i64 8, ptr %14) #6
  call void @llvm.lifetime.end.p0(i64 8, ptr %13) #6
  call void @llvm.lifetime.end.p0(i64 8, ptr %12) #6
  call void @llvm.lifetime.end.p0(i64 8, ptr %11) #6
  call void @llvm.lifetime.end.p0(i64 8, ptr %10) #6
  %199 = load i32, ptr %5, align 4
  ret i32 %199
}