; Function Attrs: nounwind uwtable
define internal range(i32 0, 2) i32 @fe(double %0, ptr noundef %1, ptr noundef %2, ptr noundef readonly captures(none) %3) #0 {
  %5 = load i64, ptr %3, align 8, !tbaa !10
  %6 = getelementptr inbounds nuw i8, ptr %3, i64 32
  %7 = load double, ptr %6, align 8, !tbaa !16
  %8 = getelementptr inbounds nuw i8, ptr %3, i64 40
  %9 = load double, ptr %8, align 8, !tbaa !17
  %10 = getelementptr inbounds nuw i8, ptr %3, i64 48
  %11 = load double, ptr %10, align 8, !tbaa !18
  %12 = getelementptr inbounds nuw i8, ptr %3, i64 8
  %13 = load double, ptr %12, align 8, !tbaa !20
  %14 = tail call ptr @N_VGetSubvector_ManyVector(ptr noundef %1, i64 noundef 0) #9
  %15 = tail call ptr @N_VGetArrayPointer(ptr noundef %14) #9
  %16 = icmp eq ptr %15, null
  br i1 %16, label %check_flag.exit, label %19

check_flag.exit:                                  ; preds = %4
  %17 = load ptr, ptr @stderr, align 8, !tbaa !8
  %18 = tail call i32 (ptr, ptr, ...) @fprintf(ptr noundef %17, ptr noundef nonnull @.str.52, ptr noundef nonnull @.str.10) #10
  br label %93

19:                                               ; preds = %4
  %20 = tail call ptr @N_VGetSubvector_ManyVector(ptr noundef %1, i64 noundef 1) #9
  %21 = tail call ptr @N_VGetArrayPointer(ptr noundef %20) #9
  %22 = icmp eq ptr %21, null
  br i1 %22, label %check_flag.exit75, label %25

check_flag.exit75:                                ; preds = %19
  %23 = load ptr, ptr @stderr, align 8, !tbaa !8
  %24 = tail call i32 (ptr, ptr, ...) @fprintf(ptr noundef %23, ptr noundef nonnull @.str.52, ptr noundef nonnull @.str.10) #10
  br label %93

25:                                               ; preds = %19
  %26 = tail call ptr @N_VGetSubvector_ManyVector(ptr noundef %1, i64 noundef 2) #9
  %27 = tail call ptr @N_VGetArrayPointer(ptr noundef %26) #9
  %28 = icmp eq ptr %27, null
  br i1 %28, label %check_flag.exit77, label %31

check_flag.exit77:                                ; preds = %25
  %29 = load ptr, ptr @stderr, align 8, !tbaa !8
  %30 = tail call i32 (ptr, ptr, ...) @fprintf(ptr noundef %29, ptr noundef nonnull @.str.52, ptr noundef nonnull @.str.10) #10
  br label %93

31:                                               ; preds = %25
  %32 = tail call ptr @N_VGetSubvector_ManyVector(ptr noundef %2, i64 noundef 0) #9
  %33 = tail call ptr @N_VGetArrayPointer(ptr noundef %32) #9
  %34 = icmp eq ptr %33, null
  br i1 %34, label %check_flag.exit79, label %37

check_flag.exit79:                                ; preds = %31
  %35 = load ptr, ptr @stderr, align 8, !tbaa !8
  %36 = tail call i32 (ptr, ptr, ...) @fprintf(ptr noundef %35, ptr noundef nonnull @.str.52, ptr noundef nonnull @.str.10) #10
  br label %93

37:                                               ; preds = %31
  %38 = tail call ptr @N_VGetSubvector_ManyVector(ptr noundef %2, i64 noundef 1) #9
  %39 = tail call ptr @N_VGetArrayPointer(ptr noundef %38) #9
  %40 = icmp eq ptr %39, null
  br i1 %40, label %check_flag.exit81, label %43

check_flag.exit81:                                ; preds = %37
  %41 = load ptr, ptr @stderr, align 8, !tbaa !8
  %42 = tail call i32 (ptr, ptr, ...) @fprintf(ptr noundef %41, ptr noundef nonnull @.str.52, ptr noundef nonnull @.str.10) #10
  br label %93

43:                                               ; preds = %37
  %44 = tail call ptr @N_VGetSubvector_ManyVector(ptr noundef %2, i64 noundef 2) #9
  %45 = tail call ptr @N_VGetArrayPointer(ptr noundef %44) #9
  %46 = icmp eq ptr %45, null
  br i1 %46, label %check_flag.exit83, label %49

check_flag.exit83:                                ; preds = %43
  %47 = load ptr, ptr @stderr, align 8, !tbaa !8
  %48 = tail call i32 (ptr, ptr, ...) @fprintf(ptr noundef %47, ptr noundef nonnull @.str.52, ptr noundef nonnull @.str.10) #10
  br label %93

49:                                               ; preds = %43
  tail call void @N_VConst(double noundef 0.000000e+00, ptr noundef %2) #9
  %50 = fdiv double %7, %13
  %51 = fdiv double %50, %13
  %52 = fdiv double %9, %13
  %53 = fdiv double %52, %13
  %54 = fdiv double %11, %13
  %55 = fdiv double %54, %13
  %56 = add i64 %5, -1
  %57 = icmp sgt i64 %5, 2
  br i1 %57, label %.lr.ph, label %._crit_edge

.lr.ph:                                           ; preds = %49, %.lr.ph
  %.096 = phi i64 [ %64, %.lr.ph ], [ 1, %49 ]
  %58 = add nsw i64 %.096, -1
  %59 = getelementptr inbounds double, ptr %15, i64 %58
  %60 = load double, ptr %59, align 8, !tbaa !27
  %61 = getelementptr inbounds nuw double, ptr %15, i64 %.096
  %62 = load double, ptr %61, align 8, !tbaa !27
  %63 = tail call double @llvm.fmuladd.f64(double %62, double -2.000000e+00, double %60)
  %64 = add nuw nsw i64 %.096, 1
  %65 = getelementptr inbounds nuw double, ptr %15, i64 %64
  %66 = load double, ptr %65, align 8, !tbaa !27
  %67 = fadd double %63, %66
  %68 = fmul double %51, %67
  %69 = getelementptr inbounds nuw double, ptr %33, i64 %.096
  store double %68, ptr %69, align 8, !tbaa !27
  %70 = getelementptr inbounds double, ptr %21, i64 %58
  %71 = load double, ptr %70, align 8, !tbaa !27
  %72 = getelementptr inbounds nuw double, ptr %21, i64 %.096
  %73 = load double, ptr %72, align 8, !tbaa !27
  %74 = tail call double @llvm.fmuladd.f64(double %73, double -2.000000e+00, double %71)
  %75 = getelementptr inbounds nuw double, ptr %21, i64 %64
  %76 = load double, ptr %75, align 8, !tbaa !27
  %77 = fadd double %74, %76
  %78 = fmul double %53, %77
  %79 = getelementptr inbounds nuw double, ptr %39, i64 %.096
  store double %78, ptr %79, align 8, !tbaa !27
  %80 = getelementptr inbounds double, ptr %27, i64 %58
  %81 = load double, ptr %80, align 8, !tbaa !27
  %82 = getelementptr inbounds nuw double, ptr %27, i64 %.096
  %83 = load double, ptr %82, align 8, !tbaa !27
  %84 = tail call double @llvm.fmuladd.f64(double %83, double -2.000000e+00, double %81)
  %85 = getelementptr inbounds nuw double, ptr %27, i64 %64
  %86 = load double, ptr %85, align 8, !tbaa !27
  %87 = fadd double %84, %86
  %88 = fmul double %55, %87
  %89 = getelementptr inbounds nuw double, ptr %45, i64 %.096
  store double %88, ptr %89, align 8, !tbaa !27
  %exitcond.not = icmp eq i64 %64, %56
  br i1 %exitcond.not, label %._crit_edge, label %.lr.ph

._crit_edge:                                      ; preds = %.lr.ph, %49
  store double 0.000000e+00, ptr %45, align 8, !tbaa !27
  store double 0.000000e+00, ptr %39, align 8, !tbaa !27
  store double 0.000000e+00, ptr %33, align 8, !tbaa !27
  %90 = getelementptr inbounds double, ptr %45, i64 %56
  store double 0.000000e+00, ptr %90, align 8, !tbaa !27
  %91 = getelementptr inbounds double, ptr %39, i64 %56
  store double 0.000000e+00, ptr %91, align 8, !tbaa !27
  %92 = getelementptr inbounds double, ptr %33, i64 %56
  store double 0.000000e+00, ptr %92, align 8, !tbaa !27
  br label %93

93:                                               ; preds = %check_flag.exit83, %check_flag.exit81, %check_flag.exit79, %check_flag.exit77, %check_flag.exit75, %check_flag.exit, %._crit_edge
  %.067 = phi i32 [ 0, %._crit_edge ], [ 1, %check_flag.exit ], [ 1, %check_flag.exit75 ], [ 1, %check_flag.exit77 ], [ 1, %check_flag.exit79 ], [ 1, %check_flag.exit81 ], [ 1, %check_flag.exit83 ]
  ret i32 %.067
}